(lp0
cnumpy.core.multiarray
scalar
p1
(cnumpy
dtype
p2
(S'f4'
p3
I0
I1
tp4
Rp5
(I3
S'<'
p6
NNNI-1
I-1
I0
tp7
bS'k\x06\xd4J'
p8
tp9
Rp10
ag1
(g5
S'\xa8FbI'
p11
tp12
Rp13
ag1
(g5
S'oW+I'
p14
tp15
Rp16
ag1
(g5
S'\x1eY&I'
p17
tp18
Rp19
ag1
(g5
S"'\x99\x0fI"
p20
tp21
Rp22
ag1
(g5
S'(>%I'
p23
tp24
Rp25
ag1
(g5
S'\xf0>2I'
p26
tp27
Rp28
ag1
(g5
S'?\r\x1aI'
p29
tp30
Rp31
ag1
(g5
S'\xc3\xcb\x17I'
p32
tp33
Rp34
ag1
(g5
S'\xf4\x80\x0fI'
p35
tp36
Rp37
ag1
(g5
S'\xd7A+I'
p38
tp39
Rp40
ag1
(g5
S'\xaa\x9a!I'
p41
tp42
Rp43
ag1
(g5
S'\xeb\xdc#I'
p44
tp45
Rp46
ag1
(g5
S'\x13d\x13I'
p47
tp48
Rp49
ag1
(g5
S"\xe0'\x1bI"
p50
tp51
Rp52
ag1
(g5
S'\xba$\x0eI'
p53
tp54
Rp55
ag1
(g5
S"'\xfb%I"
p56
tp57
Rp58
ag1
(g5
S'\xaa\x9a\x02I'
p59
tp60
Rp61
ag1
(g5
S'\xa8+\tI'
p62
tp63
Rp64
ag1
(g5
S'+\x92\xf7H'
p65
tp66
Rp67
ag1
(g5
S'\xf61\x03I'
p68
tp69
Rp70
ag1
(g5
S'\xb85\xe3H'
p71
tp72
Rp73
ag1
(g5
S'\x18\xa0\xebH'
p74
tp75
Rp76
ag1
(g5
S'\xa5)\xf5H'
p77
tp78
Rp79
ag1
(g5
S'\xd7\xd5\xcbH'
p80
tp81
Rp82
ag1
(g5
S'\xabS\xc9H'
p83
tp84
Rp85
ag1
(g5
S'\xb8\x9e\xc7H'
p86
tp87
Rp88
ag1
(g5
S'\xdf\xde\xdbH'
p89
tp90
Rp91
ag1
(g5
S'\x99\xc1\xc6H'
p92
tp93
Rp94
a.